(lp0
cpynput.keyboard._darwin
Key
p1
(ccopy_reg
_reconstructor
p2
(cpynput.keyboard._darwin
KeyCode
p3
c__builtin__
object
p4
Ntp5
Rp6
(dp7
S'char'
p8
NsS'is_dead'
p9
I00
sS'vk'
p10
I55
sS'combining'
p11
Nsbtp12
Rp13
ag1
(g2
(g3
g4
Ntp14
Rp15
(dp16
g8
Nsg9
I00
sg10
I56
sg11
Nsbtp17
Rp18
a.(lp0
cpynput.keyboard._darwin
Key
p1
(ccopy_reg
_reconstructor
p2
(cpynput.keyboard._darwin
KeyCode
p3
c__builtin__
object
p4
Ntp5
Rp6
(dp7
S'char'
p8
NsS'is_dead'
p9
I00
sS'vk'
p10
I56
sS'combining'
p11
Nsbtp12
Rp13
a.(lp0
cpynput.keyboard._darwin
Key
p1
(ccopy_reg
_reconstructor
p2
(cpynput.keyboard._darwin
KeyCode
p3
c__builtin__
object
p4
Ntp5
Rp6
(dp7
S'char'
p8
NsS'is_dead'
p9
I00
sS'vk'
p10
I56
sS'combining'
p11
Nsbtp12
Rp13
a.(lp0
cpynput.keyboard._darwin
Key
p1
(ccopy_reg
_reconstructor
p2
(cpynput.keyboard._darwin
KeyCode
p3
c__builtin__
object
p4
Ntp5
Rp6
(dp7
S'char'
p8
NsS'is_dead'
p9
I00
sS'vk'
p10
I60
sS'combining'
p11
Nsbtp12
Rp13
a(F1434.94921875
F939.35546875
tp14
a(F1437.5234375
F939.35546875
tp15
a(F1443.1484375
F944.46875
tp16
a(F1453.6484375
F953.65625
tp17
a(F1470.83203125
F966.15234375
tp18
a(F1489.76171875
F980.96484375
tp19
a(F1503.71875
F989.3359375
tp20
a(F1514.16796875
F994.8671875
tp21
a(F1522.45703125
F998.18359375
tp22
a(F1522.69921875
F998.18359375
tp23
a(F1522.453125
F997.9375
tp24
a(F1520.2421875
F996.09375
tp25
a(F1517.37890625
F993.23046875
tp26
a(F1514.515625
F990.3671875
tp27
a(F1508.984375
F983.1796875
tp28
a(F1501.35546875
F972.375
tp29
a(F1491.5078125
F961.87109375
tp30
a(F1481.66015625
F952.0234375
tp31
a(F1474.73828125
F947.23046875
tp32
a(F1469.08984375
F945.34765625
tp33
a(F1464.79296875
F944.48828125
tp34
a(F1459.14453125
F942.60546875
tp35
a(F1451.16015625
F940.4765625
tp36
a(F1437.375
F939.16015625
tp37
a(F1423.58984375
F937.1875
tp38
a(F1405.1015625
F934.2265625
tp39
a(F1382.640625
F933.421875
tp40
a(F1358.76953125
F931.7734375
tp41
a(F1339.0
F928.73046875
tp42
a(F1320.51171875
F924.29296875
tp43
a(F1302.26171875
F916.6875
tp44
a(F1287.46875
F905.59375
tp45
a(F1275.95703125
F895.4375
tp46
a(F1262.26953125
F880.98828125
tp47
a(F1248.6328125
F862.53515625
tp48
a(F1235.796875
F844.08203125
tp49
a(F1224.65625
F814.3828125
tp50
a(F1213.89453125
F771.33984375
tp51
a(F1210.98046875
F736.41015625
tp52
a(F1210.98046875
F711.0859375
tp53
a(F1213.6875
F696.1875
tp54
a(F1219.62890625
F687.2734375
tp55
a(F1226.7578125
F678.953125
tp56
a(F1238.94140625
F670.1484375
tp57
a(F1254.03125
F660.8046875
tp58
a(F1270.55859375
F654.3359375
tp59
a(F1287.56640625
F646.9375
tp60
a(F1305.3125
F641.01953125
tp61
a(F1325.078125
F635.6953125
tp62
a(F1350.3984375
F632.31640625
tp63
a(F1374.265625
F629.0234375
tp64
a(F1398.1328125
F626.55078125
tp65
a(F1424.9453125
F624.8203125
tp66
a(F1450.265625
F623.97265625
tp67
a(F1480.1953125
F623.97265625
tp68
a(F1508.546875
F625.7421875
tp69
a(F1533.8671875
F629.9609375
tp70
a(F1564.4921875
F638.3125
tp71
a(F1586.94921875
F643.92578125
tp72
a(F1605.95703125
F650.765625
tp73
a(F1624.203125
F658.3671875
tp74
a(F1636.671875
F665.5859375
tp75
a(F1645.58203125
F672.12109375
tp76
a(F1651.66015625
F678.75390625
tp77
a(F1656.6328125
F686.4921875
tp78
a(F1659.29296875
F694.47265625
tp79
a(F1662.16015625
F704.21875
tp80
a(F1662.16015625
F712.19921875
tp81
a(F1662.16015625
F721.9453125
tp82
a(F1660.9296875
F733.625
tp83
a(F1658.8828125
F740.78515625
tp84
a(F1655.15625
F748.234375
tp85
a(F1649.41796875
F756.26171875
tp86
a(F1644.09375
F762.64453125
tp87
a(F1638.23828125
F768.49609375
tp88
a(F1633.12109375
F773.609375
tp89
a(F1627.71875
F777.04296875
tp90
a(F1623.01171875
F780.3359375
tp91
a(F1619.14453125
F782.48046875
tp92
a(F1616.03515625
F784.03125
tp93
a(F1613.94921875
F785.0703125
tp94
a(F1612.3125
F785.72265625
tp95
a(F1610.67578125
F786.375
tp96
a(F1609.8125
F786.66015625
tp97
a(F1608.94921875
F787.23046875
tp98
a(F1608.0859375
F787.515625
tp99
a(F1607.83984375
F787.515625
tp100
a(F1607.3046875
F787.515625
tp101
a(F1606.76953125
F787.515625
tp102
a(F1606.5234375
F787.7578125
tp103
a(F1605.98828125
F787.7578125
tp104
a(F1605.7421875
F788.0
tp105
a(F1605.49609375
F788.0
tp106
a(F1605.25
F788.2421875
tp107
a(F1605.00390625
F788.484375
tp108
a(F1604.46875
F788.75
tp109
a(F1604.22265625
F788.9921875
tp110
a(F1603.875
F791.07421875
tp111
a(F1603.875
F794.75390625
tp112
a(F1603.875
F801.9140625
tp113
a(F1603.875
F814.625
tp114
a(F1605.51953125
F838.4921875
tp115
a(F1607.92578125
F860.94921875
tp116
a(F1611.30078125
F886.26953125
tp117
a(F1615.51953125
F911.58984375
tp118
a(F1616.3203125
F934.046875
tp119
a(F1616.3203125
F947.828125
tp120
a(F1616.3203125
F960.5390625
tp121
a(F1616.3203125
F969.3828125
tp122
a(F1616.3203125
F975.765625
tp123
a(F1616.3203125
F982.1484375
tp124
a(F1617.2578125
F987.79296875
tp125
a(F1617.68359375
F992.0859375
tp126
a(F1617.68359375
F996.37890625
tp127
a(F1617.68359375
F999.484375
tp128
a(F1617.68359375
F1002.05859375
tp129
a(F1617.68359375
F1003.28515625
tp130
a(F1617.68359375
F1004.91796875
tp131
a(F1617.68359375
F1005.44921875
tp132
a(F1617.68359375
F1006.30859375
tp133
a(F1617.68359375
F1006.55078125
tp134
a(F1617.68359375
F1006.79296875
tp135
acpynput.mouse._darwin
Button
p136
(((I1
I2
I6
tp137
I0
tp138
tp139
Rp140
ag140
ag136
(((I3
I4
I7
tp141
I1
tp142
tp143
Rp144
ag144
a(F1617.1484375
F1006.79296875
tp145
a(F1615.0625
F1006.79296875
tp146
a(F1613.42578125
F1007.1171875
tp147
a(F1610.84765625
F1008.21875
tp148
a(F1607.73828125
F1008.9921875
tp149
a(F1603.44140625
F1009.84765625
tp150
a(F1600.33203125
F1009.84765625
tp151
a(F1596.03515625
F1010.2734375
tp152
a(F1591.73828125
F1010.69921875
tp153
a(F1588.0546875
F1010.69921875
tp154
a(F1583.7578125
F1011.125
tp155
a(F1579.4609375
F1011.98046875
tp156
a(F1576.3515625
F1011.98046875
tp157
a(F1573.2421875
F1011.98046875
tp158
a(F1571.15625
F1011.98046875
tp159
a(F1569.0703125
F1011.98046875
tp160
a(F1567.83984375
F1012.28515625
tp161
a(F1566.609375
F1012.28515625
tp162
a(F1566.07421875
F1012.55078125
tp163
ag140
ag140
a(F1565.765625
F1011.3203125
tp164
a(F1565.765625
F1009.68359375
tp165
a(F1565.765625
F1008.453125
tp166
a(F1564.72265625
F1006.3671875
tp167
a(F1564.72265625
F1003.7890625
tp168
a(F1564.375
F1001.703125
tp169
a(F1564.00390625
F999.125
tp170
a(F1563.59375
F995.44140625
tp171
a(F1562.81640625
F992.33203125
tp172
a(F1562.42578125
F989.22265625
tp173
a(F1561.13671875
F984.92578125
tp174
a(F1560.7265625
F981.2421875
tp175
a(F1560.31640625
F977.55859375
tp176
a(F1559.88671875
F973.26171875
tp177
a(F1559.06640625
F969.578125
tp178
a(F1558.20703125
F965.28125
tp179
a(F1556.91796875
F960.984375
tp180
a(F1556.140625
F957.875
tp181
a(F1554.8515625
F953.578125
tp182
a(F1554.07421875
F950.46875
tp183
a(F1552.96875
F947.890625
tp184
a(F1552.640625
F946.25390625
tp185
a(F1552.26953125
F943.67578125
tp186
a(F1551.94140625
F942.0390625
tp187
a(F1551.28515625
F940.40234375
tp188
a(F1551.28515625
F939.5390625
tp189
a(F1550.62890625
F937.90234375
tp190
a(F1550.62890625
F937.0390625
tp191
a(F1550.3828125
F936.79296875
tp192
a(F1550.3828125
F935.9296875
tp193
a(F1549.80859375
F935.06640625
tp194
a(F1549.80859375
F934.53125
tp195
a(F1549.80859375
F934.28515625
tp196
a(F1549.5625
F934.0390625
tp197
a(F1549.5625
F933.79296875
tp198
a(F1549.5625
F933.2578125
tp199
a(F1549.5625
F933.01171875
tp200
a(F1549.5625
F932.765625
tp201
a(F1549.5625
F932.51953125
tp202
a(F1549.5625
F931.984375
tp203
ag136
(((I25
I26
I27
tp204
I2
tp205
tp206
Rp207
ag1
(g2
(g3
g4
Ntp208
Rp209
(dp210
g8
Nsg9
I00
sg10
I56
sg11
Nsbtp211
Rp212
a.